target datalayout = "e-m:e-p270:32:32-p271:32:32-p272:64:64-i64:64-i128:128-f80:128-n8:16:32:64-S128"
target triple = "x86_64-pc-linux-gnu"

%struct.ssl_connection_st = type { %struct.ssl_st, ptr, i32, ptr, ptr, ptr, i32, ptr, i32, i32, i32, i32, %struct.OSSL_TIME, %struct.OSSL_TIME, %struct.ossl_statem_st, i32, ptr, ptr, i64, i64, i64, %struct.ossl_quic_tls_callbacks_st, ptr, ptr, %struct.anon, ptr, ptr, ptr, i32, ptr, %struct.ssl_dane_st, ptr, ptr, ptr, ptr, i32, [64 x i8], [64 x i8], [64 x i8], [64 x i8], [64 x i8], [64 x i8], [64 x i8], [64 x i8], [64 x i8], [64 x i8], [64 x i8], [64 x i8], ptr, [64 x i8], i64, i32, i64, [32 x i8], ptr, ptr, ptr, i64, ptr, [32 x i8], i64, i32, ptr, ptr, i32, i32, ptr, ptr, ptr, ptr, ptr, i64, ptr, ptr, i64, i32, i32, i32, i64, i32, i32, i64, i64, i64, %struct.anon.1, ptr, i32, ptr, ptr, ptr, i32, ptr, ptr, ptr, i32, i32, i32, i32, ptr, i64, i32, ptr, %struct.srp_ctx_st, ptr, %struct.record_layer_st, ptr, ptr, ptr, ptr, i64, i32, i32, i32, i64, i64, i64, ptr, ptr, ptr, ptr, ptr, i64, ptr, i64, ptr, i64 }
%struct.ssl_st = type { i32, ptr, ptr, ptr, %struct.CRYPTO_REF_COUNT, ptr, %struct.crypto_ex_data_st }
%struct.CRYPTO_REF_COUNT = type { i32 }
%struct.crypto_ex_data_st = type { ptr, ptr }
%struct.OSSL_TIME = type { i64 }
%struct.ossl_statem_st = type { i32, i32, i32, i32, i32, i32, i32, i32, i32, i32, i32, i32, i32, ptr, ptr, ptr, i8 }
%struct.ossl_quic_tls_callbacks_st = type { ptr, ptr, ptr, ptr, ptr, ptr }
%struct.anon = type { i64, [32 x i8], [32 x i8], ptr, ptr, i32, i32, i32, i32, [2 x i8], i32, i32, i32, i32, %struct.anon.0, [64 x i8], i64, [64 x i8], i64, i32, i32, ptr, i64, ptr, i64, i32, i8, i8, i16, ptr, i16 }
%struct.anon.0 = type { [128 x i8], i64, [128 x i8], i64, i64, i32, ptr, ptr, [4 x ptr], [4 x i16], i64, i32, ptr, i64, ptr, i64, ptr, ptr, ptr, i32, i64, ptr, i32, ptr, i64, ptr, i64, ptr, i64, ptr, ptr, ptr, ptr, i64, i64, ptr, ptr, i32, i32, i32, i32 }
%struct.ssl_dane_st = type { ptr, ptr, ptr, ptr, ptr, i32, i32, i32, i64 }
%struct.anon.1 = type { [29 x i8], ptr, ptr, ptr, i32, ptr, i16, i32, %struct.anon.2, i32, i32, i64, ptr, i64, ptr, i64, ptr, i64, ptr, i64, ptr, i64, ptr, ptr, ptr, ptr, ptr, ptr, ptr, i64, ptr, i64, i32, i32, i32, i32, ptr, i64, i32, i8, i32, [4 x i32], i32, i8, i8, i8, i8 }
%struct.anon.2 = type { ptr, ptr, ptr, i64 }
%struct.srp_ctx_st = type { ptr, ptr, ptr, ptr, ptr, ptr, ptr, ptr, ptr, ptr, ptr, ptr, ptr, ptr, i32, i64 }
%struct.record_layer_st = type { ptr, ptr, ptr, ptr, ptr, ptr, ptr, ptr, i64, i32, i64, [4 x i8], i64, i64, i8, ptr, i32, ptr, ptr, ptr, i64, i64, i64, i64, [32 x %struct.tls_record_st] }
%struct.tls_record_st = type { ptr, i32, i8, ptr, ptr, i64, i64, i16, [8 x i8] }
%struct.ssl_ctx_st = type { ptr, ptr, ptr, ptr, ptr, ptr, ptr, i64, ptr, ptr, i32, %struct.OSSL_TIME, ptr, ptr, ptr, %struct.anon.3, %struct.CRYPTO_REF_COUNT, ptr, ptr, ptr, ptr, ptr, ptr, ptr, ptr, ptr, %struct.crypto_ex_data_st, ptr, ptr, ptr, ptr, ptr, ptr, ptr, i64, i32, i32, i32, i64, ptr, ptr, i32, ptr, ptr, i32, i64, [32 x i8], ptr, ptr, ptr, i32, ptr, ptr, ptr, i64, i64, i64, i64, ptr, ptr, ptr, ptr, ptr, %struct.anon.4, ptr, ptr, ptr, ptr, %struct.srp_ctx_st, %struct.dane_ctx_st, ptr, ptr, ptr, ptr, i32, i32, ptr, ptr, i64, i64, ptr, ptr, ptr, i64, ptr, ptr, i32, ptr, ptr, ptr, [14 x i32], [24 x ptr], [14 x ptr], [14 x i64], i64, ptr, ptr, ptr, i64, i64, ptr, i64, i64, i32, i32, i32, i32, ptr, i64, ptr, i64, i64, ptr, ptr }
%struct.anon.3 = type { i32, i32, i32, i32, i32, i32, i32, i32, i32, i32, i32 }
%struct.anon.4 = type { ptr, ptr, [16 x i8], ptr, ptr, ptr, ptr, ptr, i32, i8, i64, ptr, i64, ptr, i64, ptr, i64, ptr, ptr, i64, ptr, ptr, ptr, i64, ptr, ptr, ptr, ptr, [32 x i8] }
%struct.dane_ctx_st = type { ptr, ptr, i8, i64 }

@.str = private unnamed_addr constant [25 x i8] c"../openssl/ssl/ssl_lib.c\00", align 1
@ossl_to_lowerhex.hexdig = internal constant [17 x i8] c"0123456789abcdef\00", align 16

; Function Attrs: inlinehint nounwind uwtable
define internal i64 @to_hex(ptr noundef %0, i8 noundef zeroext %1, ptr noundef %2) #4 {
  %4 = alloca ptr, align 8
  %5 = alloca i8, align 1
  %6 = alloca ptr, align 8
  store ptr %0, ptr %4, align 8, !tbaa !8
  store i8 %1, ptr %5, align 1, !tbaa !282
  store ptr %2, ptr %6, align 8, !tbaa !8
  %7 = load ptr, ptr %6, align 8, !tbaa !8
  %8 = load i8, ptr %5, align 1, !tbaa !282
  %9 = zext i8 %8 to i32
  %10 = ashr i32 %9, 4
  %11 = and i32 %10, 15
  %12 = sext i32 %11 to i64
  %13 = getelementptr inbounds i8, ptr %7, i64 %12
  %14 = load i8, ptr %13, align 1, !tbaa !282
  %15 = load ptr, ptr %4, align 8, !tbaa !8
  %16 = getelementptr inbounds nuw i8, ptr %15, i32 1
  store ptr %16, ptr %4, align 8, !tbaa !8
  store i8 %14, ptr %15, align 1, !tbaa !282
  %17 = load ptr, ptr %6, align 8, !tbaa !8
  %18 = load i8, ptr %5, align 1, !tbaa !282
  %19 = zext i8 %18 to i32
  %20 = and i32 %19, 15
  %21 = sext i32 %20 to i64
  %22 = getelementptr inbounds i8, ptr %17, i64 %21
  %23 = load i8, ptr %22, align 1, !tbaa !282
  %24 = load ptr, ptr %4, align 8, !tbaa !8
  store i8 %23, ptr %24, align 1, !tbaa !282
  ret i64 2
}

; Function Attrs: inlinehint nounwind uwtable
define internal i64 @ossl_to_lowerhex(ptr noundef %0, i8 noundef zeroext %1) #4 {
  %3 = alloca ptr, align 8
  %4 = alloca i8, align 1
  store ptr %0, ptr %3, align 8, !tbaa !8
  store i8 %1, ptr %4, align 1, !tbaa !282
  %5 = load ptr, ptr %3, align 8, !tbaa !8
  %6 = load i8, ptr %4, align 1, !tbaa !282
  %7 = call i64 @to_hex(ptr noundef %5, i8 noundef zeroext %6, ptr noundef @ossl_to_lowerhex.hexdig)
  ret i64 %7
}

; Function Attrs: nounwind uwtable
define internal i32 @nss_keylog_int(ptr noundef %0, ptr noundef %1, ptr noundef %2, i64 noundef %3, ptr noundef %4, i64 noundef %5) #0 {
  %7 = alloca i32, align 4
  %8 = alloca ptr, align 8
  %9 = alloca ptr, align 8
  %10 = alloca ptr, align 8
  %11 = alloca i64, align 8
  %12 = alloca ptr, align 8
  %13 = alloca i64, align 8
  %14 = alloca ptr, align 8
  %15 = alloca ptr, align 8
  %16 = alloca i64, align 8
  %17 = alloca i64, align 8
  %18 = alloca i64, align 8
  %19 = alloca ptr, align 8
  %20 = alloca i32, align 4
  store ptr %0, ptr %8, align 8, !tbaa !8
  store ptr %1, ptr %9, align 8, !tbaa !3
  store ptr %2, ptr %10, align 8, !tbaa !8
  store i64 %3, ptr %11, align 8, !tbaa !10
  store ptr %4, ptr %12, align 8, !tbaa !8
  store i64 %5, ptr %13, align 8, !tbaa !10
  call void @llvm.lifetime.start.p0(i64 8, ptr %14) #9
  store ptr null, ptr %14, align 8, !tbaa !8
  call void @llvm.lifetime.start.p0(i64 8, ptr %15) #9
  store ptr null, ptr %15, align 8, !tbaa !8
  call void @llvm.lifetime.start.p0(i64 8, ptr %16) #9
  store i64 0, ptr %16, align 8, !tbaa !10
  call void @llvm.lifetime.start.p0(i64 8, ptr %17) #9
  call void @llvm.lifetime.start.p0(i64 8, ptr %18) #9
  call void @llvm.lifetime.start.p0(i64 8, ptr %19) #9
  %21 = load ptr, ptr %9, align 8, !tbaa !3
  %22 = getelementptr inbounds nuw %struct.ssl_connection_st, ptr %21, i32 0, i32 0
  %23 = getelementptr inbounds nuw %struct.ssl_st, ptr %22, i32 0, i32 1
  %24 = load ptr, ptr %23, align 8, !tbaa !473
  store ptr %24, ptr %19, align 8, !tbaa !109
  %25 = load ptr, ptr %19, align 8, !tbaa !109
  %26 = getelementptr inbounds nuw %struct.ssl_ctx_st, ptr %25, i32 0, i32 73
  %27 = load ptr, ptr %26, align 8, !tbaa !592
  %28 = icmp eq ptr %27, null
  br i1 %28, label %29, label %30

29:                                               ; preds = %6
  store i32 1, ptr %7, align 4
  store i32 1, ptr %20, align 4
  br label %106

30:                                               ; preds = %6
  %31 = load ptr, ptr %8, align 8, !tbaa !8
  %32 = call i64 @strlen(ptr noundef %31) #10
  store i64 %32, ptr %18, align 8, !tbaa !10
  %33 = load i64, ptr %18, align 8, !tbaa !10
  %34 = load i64, ptr %11, align 8, !tbaa !10
  %35 = mul i64 2, %34
  %36 = add i64 %33, %35
  %37 = load i64, ptr %13, align 8, !tbaa !10
  %38 = mul i64 2, %37
  %39 = add i64 %36, %38
  %40 = add i64 %39, 3
  store i64 %40, ptr %16, align 8, !tbaa !10
  %41 = load i64, ptr %16, align 8, !tbaa !10
  %42 = call noalias ptr @CRYPTO_malloc(i64 noundef %41, ptr noundef @.str, i32 noundef 6958)
  store ptr %42, ptr %15, align 8, !tbaa !8
  store ptr %42, ptr %14, align 8, !tbaa !8
  %43 = icmp eq ptr %42, null
  br i1 %43, label %44, label %45

44:                                               ; preds = %30
  store i32 0, ptr %7, align 4
  store i32 1, ptr %20, align 4
  br label %106

45:                                               ; preds = %30
  %46 = load ptr, ptr %15, align 8, !tbaa !8
  %47 = load ptr, ptr %8, align 8, !tbaa !8
  %48 = load i64, ptr %18, align 8, !tbaa !10
  call void @llvm.memcpy.p0.p0.i64(ptr align 1 %46, ptr align 1 %47, i64 %48, i1 false)
  %49 = load i64, ptr %18, align 8, !tbaa !10
  %50 = load ptr, ptr %15, align 8, !tbaa !8
  %51 = getelementptr inbounds nuw i8, ptr %50, i64 %49
  store ptr %51, ptr %15, align 8, !tbaa !8
  %52 = load ptr, ptr %15, align 8, !tbaa !8
  %53 = getelementptr inbounds nuw i8, ptr %52, i32 1
  store ptr %53, ptr %15, align 8, !tbaa !8
  store i8 32, ptr %52, align 1, !tbaa !282
  store i64 0, ptr %17, align 8, !tbaa !10
  br label %54

54:                                               ; preds = %67, %45
  %55 = load i64, ptr %17, align 8, !tbaa !10
  %56 = load i64, ptr %11, align 8, !tbaa !10
  %57 = icmp ult i64 %55, %56
  br i1 %57, label %58, label %70

58:                                               ; preds = %54
  %59 = load ptr, ptr %15, align 8, !tbaa !8
  %60 = load ptr, ptr %10, align 8, !tbaa !8
  %61 = load i64, ptr %17, align 8, !tbaa !10
  %62 = getelementptr inbounds nuw i8, ptr %60, i64 %61
  %63 = load i8, ptr %62, align 1, !tbaa !282
  %64 = call i64 @ossl_to_lowerhex(ptr noundef %59, i8 noundef zeroext %63)
  %65 = load ptr, ptr %15, align 8, !tbaa !8
  %66 = getelementptr inbounds nuw i8, ptr %65, i64 %64
  store ptr %66, ptr %15, align 8, !tbaa !8
  br label %67

67:                                               ; preds = %58
  %68 = load i64, ptr %17, align 8, !tbaa !10
  %69 = add i64 %68, 1
  store i64 %69, ptr %17, align 8, !tbaa !10
  br label %54, !llvm.loop !593

70:                                               ; preds = %54
  %71 = load ptr, ptr %15, align 8, !tbaa !8
  %72 = getelementptr inbounds nuw i8, ptr %71, i32 1
  store ptr %72, ptr %15, align 8, !tbaa !8
  store i8 32, ptr %71, align 1, !tbaa !282
  store i64 0, ptr %17, align 8, !tbaa !10
  br label %73

73:                                               ; preds = %86, %70
  %74 = load i64, ptr %17, align 8, !tbaa !10
  %75 = load i64, ptr %13, align 8, !tbaa !10
  %76 = icmp ult i64 %74, %75
  br i1 %76, label %77, label %89

77:                                               ; preds = %73
  %78 = load ptr, ptr %15, align 8, !tbaa !8
  %79 = load ptr, ptr %12, align 8, !tbaa !8
  %80 = load i64, ptr %17, align 8, !tbaa !10
  %81 = getelementptr inbounds nuw i8, ptr %79, i64 %80
  %82 = load i8, ptr %81, align 1, !tbaa !282
  %83 = call i64 @ossl_to_lowerhex(ptr noundef %78, i8 noundef zeroext %82)
  %84 = load ptr, ptr %15, align 8, !tbaa !8
  %85 = getelementptr inbounds nuw i8, ptr %84, i64 %83
  store ptr %85, ptr %15, align 8, !tbaa !8
  br label %86

86:                                               ; preds = %77
  %87 = load i64, ptr %17, align 8, !tbaa !10
  %88 = add i64 %87, 1
  store i64 %88, ptr %17, align 8, !tbaa !10
  br label %73, !llvm.loop !594

89:                                               ; preds = %73
  %90 = load ptr, ptr %15, align 8, !tbaa !8
  store i8 0, ptr %90, align 1, !tbaa !282
  %91 = load ptr, ptr %19, align 8, !tbaa !109
  %92 = getelementptr inbounds nuw %struct.ssl_ctx_st, ptr %91, i32 0, i32 73
  %93 = load ptr, ptr %92, align 8, !tbaa !592
  %94 = icmp ne ptr %93, null
  br i1 %94, label %95, label %103

95:                                               ; preds = %89
  %96 = load ptr, ptr %19, align 8, !tbaa !109
  %97 = getelementptr inbounds nuw %struct.ssl_ctx_st, ptr %96, i32 0, i32 73
  %98 = load ptr, ptr %97, align 8, !tbaa !592
  %99 = load ptr, ptr %9, align 8, !tbaa !3
  %100 = getelementptr inbounds nuw %struct.ssl_connection_st, ptr %99, i32 0, i32 1
  %101 = load ptr, ptr %100, align 8, !tbaa !134
  %102 = load ptr, ptr %14, align 8, !tbaa !8
  call void %98(ptr noundef %101, ptr noundef %102)
  br label %103

103:                                              ; preds = %95, %89
  %104 = load ptr, ptr %14, align 8, !tbaa !8
  %105 = load i64, ptr %16, align 8, !tbaa !10
  call void @CRYPTO_clear_free(ptr noundef %104, i64 noundef %105, ptr noundef @.str, i32 noundef 6979)
  store i32 1, ptr %7, align 4
  store i32 1, ptr %20, align 4
  br label %106

106:                                              ; preds = %103, %44, %29
  call void @llvm.lifetime.end.p0(i64 8, ptr %19) #9
  call void @llvm.lifetime.end.p0(i64 8, ptr %18) #9
  call void @llvm.lifetime.end.p0(i64 8, ptr %17) #9
  call void @llvm.lifetime.end.p0(i64 8, ptr %16) #9
  call void @llvm.lifetime.end.p0(i64 8, ptr %15) #9
  call void @llvm.lifetime.end.p0(i64 8, ptr %14) #9
  %107 = load i32, ptr %7, align 4
  ret i32 %107
}