; Function Attrs: nounwind uwtable
define internal fastcc range(i32 0, 2) i32 @nss_keylog_int(ptr noundef readonly captures(none) %0, ptr noundef readonly captures(none) %1, ptr noundef readonly captures(none) %2, i64 noundef range(i64 8, 33) %3, ptr noundef readonly captures(none) %4, i64 noundef %5) unnamed_addr #0 {
  %7 = getelementptr inbounds nuw i8, ptr %1, i64 8
  %8 = load ptr, ptr %7, align 8, !tbaa !426
  %9 = getelementptr inbounds nuw i8, ptr %8, i64 1032
  %10 = load ptr, ptr %9, align 8, !tbaa !517
  %11 = icmp eq ptr %10, null
  br i1 %11, label %59, label %12

12:                                               ; preds = %6
  %13 = tail call i64 @strlen(ptr noundef nonnull dereferenceable(1) %0) #21
  %14 = add i64 %5, %3
  %15 = shl i64 %14, 1
  %16 = add i64 %15, 3
  %17 = add i64 %16, %13
  %18 = tail call noalias ptr @CRYPTO_malloc(i64 noundef %17, ptr noundef nonnull @.str, i32 noundef 6958) #20
  %19 = icmp eq ptr %18, null
  br i1 %19, label %59, label %20

20:                                               ; preds = %12
  tail call void @llvm.memcpy.p0.p0.i64(ptr nonnull align 1 %18, ptr nonnull align 1 %0, i64 %13, i1 false)
  %21 = getelementptr inbounds nuw i8, ptr %18, i64 %13
  %22 = getelementptr inbounds nuw i8, ptr %21, i64 1
  store i8 32, ptr %21, align 1, !tbaa !261
  br label %23

23:                                               ; preds = %20, %23
  %.03541 = phi i64 [ 0, %20 ], [ %37, %23 ]
  %.03640 = phi ptr [ %22, %20 ], [ %36, %23 ]
  %24 = getelementptr inbounds nuw i8, ptr %2, i64 %.03541
  %25 = load i8, ptr %24, align 1, !tbaa !261
  %26 = zext i8 %25 to i32
  %27 = lshr i32 %26, 4
  %28 = zext nneg i32 %27 to i64
  %29 = getelementptr inbounds nuw i8, ptr @ossl_to_lowerhex.hexdig, i64 %28
  %30 = load i8, ptr %29, align 1, !tbaa !261
  %31 = getelementptr inbounds nuw i8, ptr %.03640, i64 1
  store i8 %30, ptr %.03640, align 1, !tbaa !261
  %32 = and i32 %26, 15
  %33 = zext nneg i32 %32 to i64
  %34 = getelementptr inbounds nuw i8, ptr @ossl_to_lowerhex.hexdig, i64 %33
  %35 = load i8, ptr %34, align 1, !tbaa !261
  store i8 %35, ptr %31, align 1, !tbaa !261
  %36 = getelementptr inbounds nuw i8, ptr %.03640, i64 2
  %37 = add nuw nsw i64 %.03541, 1
  %exitcond.not = icmp eq i64 %37, %3
  br i1 %exitcond.not, label %38, label %23, !llvm.loop !518

38:                                               ; preds = %23
  %39 = getelementptr inbounds nuw i8, ptr %.03640, i64 3
  store i8 32, ptr %36, align 1, !tbaa !261
  %.not44 = icmp eq i64 %5, 0
  br i1 %.not44, label %._crit_edge, label %.lr.ph

.lr.ph:                                           ; preds = %38, %.lr.ph
  %.143 = phi i64 [ %53, %.lr.ph ], [ 0, %38 ]
  %.13742 = phi ptr [ %52, %.lr.ph ], [ %39, %38 ]
  %40 = getelementptr inbounds nuw i8, ptr %4, i64 %.143
  %41 = load i8, ptr %40, align 1, !tbaa !261
  %42 = zext i8 %41 to i32
  %43 = lshr i32 %42, 4
  %44 = zext nneg i32 %43 to i64
  %45 = getelementptr inbounds nuw i8, ptr @ossl_to_lowerhex.hexdig, i64 %44
  %46 = load i8, ptr %45, align 1, !tbaa !261
  %47 = getelementptr inbounds nuw i8, ptr %.13742, i64 1
  store i8 %46, ptr %.13742, align 1, !tbaa !261
  %48 = and i32 %42, 15
  %49 = zext nneg i32 %48 to i64
  %50 = getelementptr inbounds nuw i8, ptr @ossl_to_lowerhex.hexdig, i64 %49
  %51 = load i8, ptr %50, align 1, !tbaa !261
  store i8 %51, ptr %47, align 1, !tbaa !261
  %52 = getelementptr inbounds nuw i8, ptr %.13742, i64 2
  %53 = add nuw i64 %.143, 1
  %exitcond46.not = icmp eq i64 %53, %5
  br i1 %exitcond46.not, label %._crit_edge, label %.lr.ph, !llvm.loop !519

._crit_edge:                                      ; preds = %.lr.ph, %38
  %.137.lcssa = phi ptr [ %39, %38 ], [ %52, %.lr.ph ]
  store i8 0, ptr %.137.lcssa, align 1, !tbaa !261
  %54 = load ptr, ptr %9, align 8, !tbaa !517
  %.not = icmp eq ptr %54, null
  br i1 %.not, label %58, label %55

55:                                               ; preds = %._crit_edge
  %56 = getelementptr inbounds nuw i8, ptr %1, i64 64
  %57 = load ptr, ptr %56, align 8, !tbaa !120
  tail call void %54(ptr noundef %57, ptr noundef nonnull %18) #20
  br label %58

58:                                               ; preds = %55, %._crit_edge
  tail call void @CRYPTO_clear_free(ptr noundef nonnull %18, i64 noundef %17, ptr noundef nonnull @.str, i32 noundef 6979) #20
  br label %59

59:                                               ; preds = %12, %6, %58
  %.0 = phi i32 [ 1, %58 ], [ 1, %6 ], [ 0, %12 ]
  ret i32 %.0
}